; ModuleID = '9/585.c'
source_filename = "9/585.c"
target datalayout = "e-m:e-p270:32:32-p271:32:32-p272:64:64-i64:64-f80:128-n8:16:32:64-S128"
target triple = "x86_64-pc-linux-gnu"

@.str = private unnamed_addr constant [3 x i8] c"%d\00", align 1
@.str.1 = private unnamed_addr constant [6 x i8] c"%s %d\00", align 1
@.str.2 = private unnamed_addr constant [4 x i8] c"%s\0A\00", align 1

; Function Attrs: noinline nounwind uwtable
define dso_local i32 @main() #0 {
  %1 = alloca i32, align 4
  %2 = alloca i32, align 4
  %3 = alloca i32, align 4
  %4 = alloca i32, align 4
  %5 = alloca i32, align 4
  %6 = alloca i32, align 4
  %7 = alloca i32, align 4
  %8 = alloca [100 x i32], align 16
  %9 = alloca [100 x i32], align 16
  %10 = alloca [100 x [20 x i8]], align 16
  %11 = alloca [100 x [20 x i8]], align 16
  %12 = alloca [100 x [20 x i8]], align 16
  %13 = alloca [20 x i8], align 16
  store i32 0, i32* %1, align 4
  %14 = call i32 (i8*, ...) @__isoc99_scanf(i8* getelementptr inbounds ([3 x i8], [3 x i8]* @.str, i64 0, i64 0), i32* %2)
  store i32 0, i32* %3, align 4
  br label %15

15:                                               ; preds = %28, %0
  %16 = load i32, i32* %3, align 4
  %17 = load i32, i32* %2, align 4
  %18 = icmp slt i32 %16, %17
  br i1 %18, label %19, label %31

19:                                               ; preds = %15
  %20 = load i32, i32* %3, align 4
  %21 = sext i32 %20 to i64
  %22 = getelementptr inbounds [100 x [20 x i8]], [100 x [20 x i8]]* %10, i64 0, i64 %21
  %23 = getelementptr inbounds [20 x i8], [20 x i8]* %22, i64 0, i64 0
  %24 = load i32, i32* %3, align 4
  %25 = sext i32 %24 to i64
  %26 = getelementptr inbounds [100 x i32], [100 x i32]* %8, i64 0, i64 %25
  %27 = call i32 (i8*, ...) @__isoc99_scanf(i8* getelementptr inbounds ([6 x i8], [6 x i8]* @.str.1, i64 0, i64 0), i8* %23, i32* %26)
  br label %28

28:                                               ; preds = %19
  %29 = load i32, i32* %3, align 4
  %30 = add nsw i32 %29, 1
  store i32 %30, i32* %3, align 4
  br label %15

31:                                               ; preds = %15
  store i32 0, i32* %3, align 4
  store i32 0, i32* %4, align 4
  store i32 0, i32* %5, align 4
  br label %32

32:                                               ; preds = %74, %31
  %33 = load i32, i32* %3, align 4
  %34 = load i32, i32* %2, align 4
  %35 = icmp slt i32 %33, %34
  br i1 %35, label %36, label %77

36:                                               ; preds = %32
  %37 = load i32, i32* %3, align 4
  %38 = sext i32 %37 to i64
  %39 = getelementptr inbounds [100 x i32], [100 x i32]* %8, i64 0, i64 %38
  %40 = load i32, i32* %39, align 4
  %41 = icmp sge i32 %40, 60
  br i1 %41, label %42, label %61

42:                                               ; preds = %36
  %43 = load i32, i32* %4, align 4
  %44 = sext i32 %43 to i64
  %45 = getelementptr inbounds [100 x [20 x i8]], [100 x [20 x i8]]* %11, i64 0, i64 %44
  %46 = getelementptr inbounds [20 x i8], [20 x i8]* %45, i64 0, i64 0
  %47 = load i32, i32* %3, align 4
  %48 = sext i32 %47 to i64
  %49 = getelementptr inbounds [100 x [20 x i8]], [100 x [20 x i8]]* %10, i64 0, i64 %48
  %50 = getelementptr inbounds [20 x i8], [20 x i8]* %49, i64 0, i64 0
  %51 = call i8* @strcpy(i8* %46, i8* %50) #3
  %52 = load i32, i32* %3, align 4
  %53 = sext i32 %52 to i64
  %54 = getelementptr inbounds [100 x i32], [100 x i32]* %8, i64 0, i64 %53
  %55 = load i32, i32* %54, align 4
  %56 = load i32, i32* %4, align 4
  %57 = sext i32 %56 to i64
  %58 = getelementptr inbounds [100 x i32], [100 x i32]* %9, i64 0, i64 %57
  store i32 %55, i32* %58, align 4
  %59 = load i32, i32* %4, align 4
  %60 = add nsw i32 %59, 1
  store i32 %60, i32* %4, align 4
  br label %73

61:                                               ; preds = %36
  %62 = load i32, i32* %5, align 4
  %63 = sext i32 %62 to i64
  %64 = getelementptr inbounds [100 x [20 x i8]], [100 x [20 x i8]]* %12, i64 0, i64 %63
  %65 = getelementptr inbounds [20 x i8], [20 x i8]* %64, i64 0, i64 0
  %66 = load i32, i32* %3, align 4
  %67 = sext i32 %66 to i64
  %68 = getelementptr inbounds [100 x [20 x i8]], [100 x [20 x i8]]* %10, i64 0, i64 %67
  %69 = getelementptr inbounds [20 x i8], [20 x i8]* %68, i64 0, i64 0
  %70 = call i8* @strcpy(i8* %65, i8* %69) #3
  %71 = load i32, i32* %5, align 4
  %72 = add nsw i32 %71, 1
  store i32 %72, i32* %5, align 4
  br label %73

73:                                               ; preds = %61, %42
  br label %74

74:                                               ; preds = %73
  %75 = load i32, i32* %3, align 4
  %76 = add nsw i32 %75, 1
  store i32 %76, i32* %3, align 4
  br label %32

77:                                               ; preds = %32
  store i32 0, i32* %3, align 4
  br label %78

78:                                               ; preds = %148, %77
  %79 = load i32, i32* %3, align 4
  %80 = load i32, i32* %4, align 4
  %81 = sub nsw i32 %80, 1
  %82 = icmp slt i32 %79, %81
  br i1 %82, label %83, label %151

83:                                               ; preds = %78
  store i32 0, i32* %6, align 4
  br label %84

84:                                               ; preds = %144, %83
  %85 = load i32, i32* %6, align 4
  %86 = load i32, i32* %4, align 4
  %87 = sub nsw i32 %86, 1
  %88 = load i32, i32* %3, align 4
  %89 = sub nsw i32 %87, %88
  %90 = icmp slt i32 %85, %89
  br i1 %90, label %91, label %147

91:                                               ; preds = %84
  %92 = load i32, i32* %6, align 4
  %93 = sext i32 %92 to i64
  %94 = getelementptr inbounds [100 x i32], [100 x i32]* %9, i64 0, i64 %93
  %95 = load i32, i32* %94, align 4
  %96 = load i32, i32* %6, align 4
  %97 = add nsw i32 %96, 1
  %98 = sext i32 %97 to i64
  %99 = getelementptr inbounds [100 x i32], [100 x i32]* %9, i64 0, i64 %98
  %100 = load i32, i32* %99, align 4
  %101 = icmp slt i32 %95, %100
  br i1 %101, label %102, label %143

102:                                              ; preds = %91
  %103 = load i32, i32* %6, align 4
  %104 = sext i32 %103 to i64
  %105 = getelementptr inbounds [100 x i32], [100 x i32]* %9, i64 0, i64 %104
  %106 = load i32, i32* %105, align 4
  store i32 %106, i32* %7, align 4
  %107 = load i32, i32* %6, align 4
  %108 = add nsw i32 %107, 1
  %109 = sext i32 %108 to i64
  %110 = getelementptr inbounds [100 x i32], [100 x i32]* %9, i64 0, i64 %109
  %111 = load i32, i32* %110, align 4
  %112 = load i32, i32* %6, align 4
  %113 = sext i32 %112 to i64
  %114 = getelementptr inbounds [100 x i32], [100 x i32]* %9, i64 0, i64 %113
  store i32 %111, i32* %114, align 4
  %115 = load i32, i32* %7, align 4
  %116 = load i32, i32* %6, align 4
  %117 = add nsw i32 %116, 1
  %118 = sext i32 %117 to i64
  %119 = getelementptr inbounds [100 x i32], [100 x i32]* %9, i64 0, i64 %118
  store i32 %115, i32* %119, align 4
  %120 = getelementptr inbounds [20 x i8], [20 x i8]* %13, i64 0, i64 0
  %121 = load i32, i32* %6, align 4
  %122 = sext i32 %121 to i64
  %123 = getelementptr inbounds [100 x [20 x i8]], [100 x [20 x i8]]* %11, i64 0, i64 %122
  %124 = getelementptr inbounds [20 x i8], [20 x i8]* %123, i64 0, i64 0
  %125 = call i8* @strcpy(i8* %120, i8* %124) #3
  %126 = load i32, i32* %6, align 4
  %127 = sext i32 %126 to i64
  %128 = getelementptr inbounds [100 x [20 x i8]], [100 x [20 x i8]]* %11, i64 0, i64 %127
  %129 = getelementptr inbounds [20 x i8], [20 x i8]* %128, i64 0, i64 0
  %130 = load i32, i32* %6, align 4
  %131 = add nsw i32 %130, 1
  %132 = sext i32 %131 to i64
  %133 = getelementptr inbounds [100 x [20 x i8]], [100 x [20 x i8]]* %11, i64 0, i64 %132
  %134 = getelementptr inbounds [20 x i8], [20 x i8]* %133, i64 0, i64 0
  %135 = call i8* @strcpy(i8* %129, i8* %134) #3
  %136 = load i32, i32* %6, align 4
  %137 = add nsw i32 %136, 1
  %138 = sext i32 %137 to i64
  %139 = getelementptr inbounds [100 x [20 x i8]], [100 x [20 x i8]]* %11, i64 0, i64 %138
  %140 = getelementptr inbounds [20 x i8], [20 x i8]* %139, i64 0, i64 0
  %141 = getelementptr inbounds [20 x i8], [20 x i8]* %13, i64 0, i64 0
  %142 = call i8* @strcpy(i8* %140, i8* %141) #3
  br label %143

143:                                              ; preds = %102, %91
  br label %144

144:                                              ; preds = %143
  %145 = load i32, i32* %6, align 4
  %146 = add nsw i32 %145, 1
  store i32 %146, i32* %6, align 4
  br label %84

147:                                              ; preds = %84
  br label %148

148:                                              ; preds = %147
  %149 = load i32, i32* %3, align 4
  %150 = add nsw i32 %149, 1
  store i32 %150, i32* %3, align 4
  br label %78

151:                                              ; preds = %78
  store i32 0, i32* %3, align 4
  br label %152

152:                                              ; preds = %162, %151
  %153 = load i32, i32* %3, align 4
  %154 = load i32, i32* %4, align 4
  %155 = icmp slt i32 %153, %154
  br i1 %155, label %156, label %165

156:                                              ; preds = %152
  %157 = load i32, i32* %3, align 4
  %158 = sext i32 %157 to i64
  %159 = getelementptr inbounds [100 x [20 x i8]], [100 x [20 x i8]]* %11, i64 0, i64 %158
  %160 = getelementptr inbounds [20 x i8], [20 x i8]* %159, i64 0, i64 0
  %161 = call i32 (i8*, ...) @printf(i8* getelementptr inbounds ([4 x i8], [4 x i8]* @.str.2, i64 0, i64 0), i8* %160)
  br label %162

162:                                              ; preds = %156
  %163 = load i32, i32* %3, align 4
  %164 = add nsw i32 %163, 1
  store i32 %164, i32* %3, align 4
  br label %152

165:                                              ; preds = %152
  store i32 0, i32* %3, align 4
  br label %166

166:                                              ; preds = %176, %165
  %167 = load i32, i32* %3, align 4
  %168 = load i32, i32* %5, align 4
  %169 = icmp slt i32 %167, %168
  br i1 %169, label %170, label %179

170:                                              ; preds = %166
  %171 = load i32, i32* %3, align 4
  %172 = sext i32 %171 to i64
  %173 = getelementptr inbounds [100 x [20 x i8]], [100 x [20 x i8]]* %12, i64 0, i64 %172
  %174 = getelementptr inbounds [20 x i8], [20 x i8]* %173, i64 0, i64 0
  %175 = call i32 (i8*, ...) @printf(i8* getelementptr inbounds ([4 x i8], [4 x i8]* @.str.2, i64 0, i64 0), i8* %174)
  br label %176

176:                                              ; preds = %170
  %177 = load i32, i32* %3, align 4
  %178 = add nsw i32 %177, 1
  store i32 %178, i32* %3, align 4
  br label %166

179:                                              ; preds = %166
  %180 = call i32 @getchar()
  %181 = call i32 @getchar()
  %182 = load i32, i32* %1, align 4
  ret i32 %182
}

declare dso_local i32 @__isoc99_scanf(i8*, ...) #1

; Function Attrs: nounwind
declare dso_local i8* @strcpy(i8*, i8*) #2

declare dso_local i32 @printf(i8*, ...) #1

declare dso_local i32 @getchar() #1


!llvm.module.flags = !{!0}
!llvm.ident = !{!1}

!0 = !{i32 1, !"wchar_size", i32 4}
!1 = !{!"clang version 10.0.0-4ubuntu1 "}
